target datalayout = "e-m:e-p270:32:32-p271:32:32-p272:64:64-i64:64-i128:128-f80:128-n8:16:32:64-S128"
target triple = "x86_64-unknown-linux-gnu"

%struct.BlockDriverState = type { i32, i8, i8, i8, i8, i8, ptr, ptr, ptr, %struct.anon, i8, [4096 x i8], [4096 x i8], [4096 x i8], [16 x i8], ptr, [4096 x i8], %struct.BlockLimits, i32, i32, i32, i32, [32 x i8], %union.anon, %union.anon.0, %union.anon.1, i32, [16 x %struct.anon.2], ptr, %struct.anon.3, ptr, ptr, %struct.anon.4, ptr, ptr, i32, ptr, i64, i64, %struct.QemuMutex, %struct.anon.5, %struct.Stat64, i32, i32, i32, i32, i32, i32, %struct.QemuMutex, %struct.anon.6, %struct.CoQueue, i8, i32, i8, %struct.CoMutex, ptr, ptr }
%struct.anon = type { ptr }
%struct.BlockLimits = type { i32, i64, i32, i64, i32, i32, i32, i64, i32, i64, i64, i32, i8, i32, i32, i32, i32, i32, i32, i32 }
%union.anon = type { %struct.QTailQLink }
%struct.QTailQLink = type { ptr, ptr }
%union.anon.0 = type { %struct.QTailQLink }
%union.anon.1 = type { %struct.QTailQLink }
%struct.anon.2 = type { ptr }
%struct.anon.3 = type { ptr }
%struct.anon.4 = type { ptr }
%struct.anon.5 = type { ptr }
%struct.Stat64 = type { i64 }
%struct.QemuMutex = type { %union.pthread_mutex_t, i8 }
%union.pthread_mutex_t = type { %struct.__pthread_mutex_s }
%struct.__pthread_mutex_s = type { i32, i32, i32, i32, i32, i16, i16, %struct.__pthread_internal_list }
%struct.__pthread_internal_list = type { ptr, ptr }
%struct.anon.6 = type { ptr }
%struct.CoQueue = type { %struct.anon.7 }
%struct.anon.7 = type { ptr, ptr }
%struct.CoMutex = type { i32, ptr, %struct.anon.8, %struct.anon.8, i32, i32, ptr }
%struct.anon.8 = type { ptr }
%struct.BDRVQcow2State = type { i32, i32, i32, i32, i32, i32, i32, i32, i32, i32, i32, i32, i32, i32, i64, i64, ptr, ptr, ptr, ptr, i32, %struct.anon.9, ptr, i64, i32, i32, i64, i64, %struct.CoMutex, %struct.Qcow2CryptoHeaderExtension, ptr, ptr, i8, i32, i64, i32, i32, ptr, i32, i64, i64, i32, i32, i8, i32, i32, i64, ptr, ptr, [5 x i8], i8, i32, i8, i64, i64, i64, i64, ptr, %struct.anon.10, %union.anon.11, i8, ptr, ptr, ptr, %struct.CoQueue, i32, ptr, i8, i8, i32 }
%struct.anon.9 = type { ptr }
%struct.Qcow2CryptoHeaderExtension = type { i64, i64 }
%struct.anon.10 = type { ptr }
%union.anon.11 = type { %struct.QTailQLink }
%struct.BdrvChild = type { ptr, ptr, ptr, i32, ptr, i64, i64, i8, i8, %struct.anon.12, %struct.anon.13 }
%struct.anon.12 = type { ptr, ptr }
%struct.anon.13 = type { ptr, ptr }

; Function Attrs: nounwind sspstrong uwtable
define dso_local i32 @qcow2_shrink_l1_table(ptr noundef %bs, i64 noundef %exact_size) #0 {
entry:
  %retval = alloca i32, align 4
  %bs.addr = alloca ptr, align 8
  %exact_size.addr = alloca i64, align 8
  %s = alloca ptr, align 8
  %new_l1_size = alloca i32, align 4
  %i = alloca i32, align 4
  %ret = alloca i32, align 4
  store ptr %bs, ptr %bs.addr, align 8
  store i64 %exact_size, ptr %exact_size.addr, align 8
  %0 = load ptr, ptr %bs.addr, align 8
  %opaque = getelementptr inbounds %struct.BlockDriverState, ptr %0, i32 0, i32 7
  %1 = load ptr, ptr %opaque, align 8
  store ptr %1, ptr %s, align 8
  %2 = load i64, ptr %exact_size.addr, align 8
  %3 = load ptr, ptr %s, align 8
  %l1_size = getelementptr inbounds %struct.BDRVQcow2State, ptr %3, i32 0, i32 8
  %4 = load i32, ptr %l1_size, align 8
  %conv = sext i32 %4 to i64
  %cmp = icmp uge i64 %2, %conv
  br i1 %cmp, label %if.then, label %if.end

if.then:                                          ; preds = %entry
  store i32 0, ptr %retval, align 4
  br label %return

if.end:                                           ; preds = %entry
  %5 = load i64, ptr %exact_size.addr, align 8
  %conv2 = trunc i64 %5 to i32
  store i32 %conv2, ptr %new_l1_size, align 4
  br label %do.body

do.body:                                          ; preds = %if.end
  %6 = load ptr, ptr %bs.addr, align 8
  %file = getelementptr inbounds %struct.BlockDriverState, ptr %6, i32 0, i32 31
  %7 = load ptr, ptr %file, align 8
  %tobool = icmp ne ptr %7, null
  br i1 %tobool, label %if.then3, label %if.end6

if.then3:                                         ; preds = %do.body
  %8 = load ptr, ptr %bs.addr, align 8
  %file4 = getelementptr inbounds %struct.BlockDriverState, ptr %8, i32 0, i32 31
  %9 = load ptr, ptr %file4, align 8
  %bs5 = getelementptr inbounds %struct.BdrvChild, ptr %9, i32 0, i32 0
  %10 = load ptr, ptr %bs5, align 8
  call void @bdrv_co_debug_event(ptr noundef %10, i32 noundef 43)
  br label %if.end6

if.end6:                                          ; preds = %if.then3, %do.body
  br label %do.end

do.end:                                           ; preds = %if.end6
  %11 = load ptr, ptr %bs.addr, align 8
  %file7 = getelementptr inbounds %struct.BlockDriverState, ptr %11, i32 0, i32 31
  %12 = load ptr, ptr %file7, align 8
  %13 = load ptr, ptr %s, align 8
  %l1_table_offset = getelementptr inbounds %struct.BDRVQcow2State, ptr %13, i32 0, i32 15
  %14 = load i64, ptr %l1_table_offset, align 8
  %15 = load i32, ptr %new_l1_size, align 4
  %conv8 = sext i32 %15 to i64
  %mul = mul i64 %conv8, 8
  %add = add i64 %14, %mul
  %16 = load ptr, ptr %s, align 8
  %l1_size9 = getelementptr inbounds %struct.BDRVQcow2State, ptr %16, i32 0, i32 8
  %17 = load i32, ptr %l1_size9, align 8
  %18 = load i32, ptr %new_l1_size, align 4
  %sub = sub i32 %17, %18
  %conv10 = sext i32 %sub to i64
  %mul11 = mul i64 %conv10, 8
  %call = call i32 @bdrv_co_pwrite_zeroes(ptr noundef %12, i64 noundef %add, i64 noundef %mul11, i32 noundef 0)
  store i32 %call, ptr %ret, align 4
  %19 = load i32, ptr %ret, align 4
  %cmp12 = icmp slt i32 %19, 0
  br i1 %cmp12, label %if.then14, label %if.end15

if.then14:                                        ; preds = %do.end
  br label %fail

if.end15:                                         ; preds = %do.end
  %20 = load ptr, ptr %bs.addr, align 8
  %file16 = getelementptr inbounds %struct.BlockDriverState, ptr %20, i32 0, i32 31
  %21 = load ptr, ptr %file16, align 8
  %bs17 = getelementptr inbounds %struct.BdrvChild, ptr %21, i32 0, i32 0
  %22 = load ptr, ptr %bs17, align 8
  %call18 = call i32 @bdrv_co_flush(ptr noundef %22)
  store i32 %call18, ptr %ret, align 4
  %23 = load i32, ptr %ret, align 4
  %cmp19 = icmp slt i32 %23, 0
  br i1 %cmp19, label %if.then21, label %if.end22

if.then21:                                        ; preds = %if.end15
  br label %fail

if.end22:                                         ; preds = %if.end15
  br label %do.body23

do.body23:                                        ; preds = %if.end22
  %24 = load ptr, ptr %bs.addr, align 8
  %file24 = getelementptr inbounds %struct.BlockDriverState, ptr %24, i32 0, i32 31
  %25 = load ptr, ptr %file24, align 8
  %tobool25 = icmp ne ptr %25, null
  br i1 %tobool25, label %if.then26, label %if.end29

if.then26:                                        ; preds = %do.body23
  %26 = load ptr, ptr %bs.addr, align 8
  %file27 = getelementptr inbounds %struct.BlockDriverState, ptr %26, i32 0, i32 31
  %27 = load ptr, ptr %file27, align 8
  %bs28 = getelementptr inbounds %struct.BdrvChild, ptr %27, i32 0, i32 0
  %28 = load ptr, ptr %bs28, align 8
  call void @bdrv_co_debug_event(ptr noundef %28, i32 noundef 44)
  br label %if.end29

if.end29:                                         ; preds = %if.then26, %do.body23
  br label %do.end30

do.end30:                                         ; preds = %if.end29
  %29 = load ptr, ptr %s, align 8
  %l1_size31 = getelementptr inbounds %struct.BDRVQcow2State, ptr %29, i32 0, i32 8
  %30 = load i32, ptr %l1_size31, align 8
  %sub32 = sub i32 %30, 1
  store i32 %sub32, ptr %i, align 4
  br label %for.cond

for.cond:                                         ; preds = %for.inc, %do.end30
  %31 = load i32, ptr %i, align 4
  %32 = load i32, ptr %new_l1_size, align 4
  %sub33 = sub i32 %32, 1
  %cmp34 = icmp sgt i32 %31, %sub33
  br i1 %cmp34, label %for.body, label %for.end

for.body:                                         ; preds = %for.cond
  %33 = load ptr, ptr %s, align 8
  %l1_table = getelementptr inbounds %struct.BDRVQcow2State, ptr %33, i32 0, i32 16
  %34 = load ptr, ptr %l1_table, align 8
  %35 = load i32, ptr %i, align 4
  %idxprom = sext i32 %35 to i64
  %arrayidx = getelementptr i64, ptr %34, i64 %idxprom
  %36 = load i64, ptr %arrayidx, align 8
  %and = and i64 %36, 72057594037927424
  %cmp36 = icmp eq i64 %and, 0
  br i1 %cmp36, label %if.then38, label %if.end39

if.then38:                                        ; preds = %for.body
  br label %for.inc

if.end39:                                         ; preds = %for.body
  %37 = load ptr, ptr %bs.addr, align 8
  %38 = load ptr, ptr %s, align 8
  %l1_table40 = getelementptr inbounds %struct.BDRVQcow2State, ptr %38, i32 0, i32 16
  %39 = load ptr, ptr %l1_table40, align 8
  %40 = load i32, ptr %i, align 4
  %idxprom41 = sext i32 %40 to i64
  %arrayidx42 = getelementptr i64, ptr %39, i64 %idxprom41
  %41 = load i64, ptr %arrayidx42, align 8
  %and43 = and i64 %41, 72057594037927424
  %42 = load ptr, ptr %s, align 8
  %cluster_size = getelementptr inbounds %struct.BDRVQcow2State, ptr %42, i32 0, i32 1
  %43 = load i32, ptr %cluster_size, align 4
  %conv44 = sext i32 %43 to i64
  call void @qcow2_free_clusters(ptr noundef %37, i64 noundef %and43, i64 noundef %conv44, i32 noundef 1)
  %44 = load ptr, ptr %s, align 8
  %l1_table45 = getelementptr inbounds %struct.BDRVQcow2State, ptr %44, i32 0, i32 16
  %45 = load ptr, ptr %l1_table45, align 8
  %46 = load i32, ptr %i, align 4
  %idxprom46 = sext i32 %46 to i64
  %arrayidx47 = getelementptr i64, ptr %45, i64 %idxprom46
  store i64 0, ptr %arrayidx47, align 8
  br label %for.inc

for.inc:                                          ; preds = %if.end39, %if.then38
  %47 = load i32, ptr %i, align 4
  %dec = add i32 %47, -1
  store i32 %dec, ptr %i, align 4
  br label %for.cond, !llvm.loop !5

for.end:                                          ; preds = %for.cond
  store i32 0, ptr %retval, align 4
  br label %return

fail:                                             ; preds = %if.then21, %if.then14
  %48 = load ptr, ptr %s, align 8
  %l1_table48 = getelementptr inbounds %struct.BDRVQcow2State, ptr %48, i32 0, i32 16
  %49 = load ptr, ptr %l1_table48, align 8
  %50 = load i32, ptr %new_l1_size, align 4
  %idx.ext = sext i32 %50 to i64
  %add.ptr = getelementptr i64, ptr %49, i64 %idx.ext
  %51 = load ptr, ptr %s, align 8
  %l1_size49 = getelementptr inbounds %struct.BDRVQcow2State, ptr %51, i32 0, i32 8
  %52 = load i32, ptr %l1_size49, align 8
  %53 = load i32, ptr %new_l1_size, align 4
  %sub50 = sub i32 %52, %53
  %conv51 = sext i32 %sub50 to i64
  %mul52 = mul i64 %conv51, 8
  call void @llvm.memset.p0.i64(ptr align 8 %add.ptr, i8 0, i64 %mul52, i1 false)
  %54 = load i32, ptr %ret, align 4
  store i32 %54, ptr %retval, align 4
  br label %return

return:                                           ; preds = %fail, %for.end, %if.then
  %55 = load i32, ptr %retval, align 4
  ret i32 %55
}