; Function Attrs: nounwind sspstrong uwtable
define dso_local range(i32 -2147483648, 1) i32 @qcow2_shrink_l1_table(ptr noundef %bs, i64 noundef %exact_size) #0 {
entry:
  %opaque = getelementptr inbounds nuw i8, ptr %bs, i64 24
  %0 = load ptr, ptr %opaque, align 8
  %l1_size = getelementptr inbounds nuw i8, ptr %0, i64 32
  %1 = load i32, ptr %l1_size, align 8
  %conv = sext i32 %1 to i64
  %cmp.not = icmp ult i64 %exact_size, %conv
  br i1 %cmp.not, label %if.end, label %return

if.end:                                           ; preds = %entry
  %conv2 = trunc i64 %exact_size to i32
  %file = getelementptr inbounds nuw i8, ptr %bs, i64 16840
  %2 = load ptr, ptr %file, align 8
  %tobool.not = icmp eq ptr %2, null
  br i1 %tobool.not, label %do.end, label %if.then3

if.then3:                                         ; preds = %if.end
  %3 = load ptr, ptr %2, align 8
  tail call void @bdrv_co_debug_event(ptr noundef %3, i32 noundef 43) #13
  %.pre = load ptr, ptr %file, align 8
  %.pre33 = load i32, ptr %l1_size, align 8
  br label %do.end

do.end:                                           ; preds = %if.end, %if.then3
  %4 = phi i32 [ %1, %if.end ], [ %.pre33, %if.then3 ]
  %5 = phi ptr [ null, %if.end ], [ %.pre, %if.then3 ]
  %l1_table_offset = getelementptr inbounds nuw i8, ptr %0, i64 64
  %6 = load i64, ptr %l1_table_offset, align 8
  %sext = shl i64 %exact_size, 32
  %mul = ashr exact i64 %sext, 29
  %add = add i64 %6, %mul
  %sub = sub i32 %4, %conv2
  %conv10 = sext i32 %sub to i64
  %mul11 = shl nsw i64 %conv10, 3
  %call = tail call i32 @bdrv_co_pwrite_zeroes(ptr noundef %5, i64 noundef %add, i64 noundef %mul11, i32 noundef 0) #13
  %cmp12 = icmp slt i32 %call, 0
  br i1 %cmp12, label %fail, label %if.end15

if.end15:                                         ; preds = %do.end
  %7 = load ptr, ptr %file, align 8
  %8 = load ptr, ptr %7, align 8
  %call18 = tail call i32 @bdrv_co_flush(ptr noundef %8) #13
  %cmp19 = icmp slt i32 %call18, 0
  br i1 %cmp19, label %fail, label %do.body23

do.body23:                                        ; preds = %if.end15
  %9 = load ptr, ptr %file, align 8
  %tobool25.not = icmp eq ptr %9, null
  br i1 %tobool25.not, label %do.end30, label %if.then26

if.then26:                                        ; preds = %do.body23
  %10 = load ptr, ptr %9, align 8
  tail call void @bdrv_co_debug_event(ptr noundef %10, i32 noundef 44) #13
  br label %do.end30

do.end30:                                         ; preds = %do.body23, %if.then26
  %11 = load i32, ptr %l1_size, align 8
  %sub33 = add i32 %conv2, -1
  %i.029 = add i32 %11, -1
  %cmp3430 = icmp sgt i32 %i.029, %sub33
  br i1 %cmp3430, label %for.body.lr.ph, label %return

for.body.lr.ph:                                   ; preds = %do.end30
  %l1_table = getelementptr inbounds nuw i8, ptr %0, i64 72
  %cluster_size = getelementptr inbounds nuw i8, ptr %0, i64 4
  %12 = sext i32 %i.029 to i64
  %13 = sext i32 %sub33 to i64
  br label %for.body

for.body:                                         ; preds = %for.body.lr.ph, %for.inc
  %indvars.iv = phi i64 [ %12, %for.body.lr.ph ], [ %indvars.iv.next, %for.inc ]
  %14 = load ptr, ptr %l1_table, align 8
  %arrayidx = getelementptr i64, ptr %14, i64 %indvars.iv
  %15 = load i64, ptr %arrayidx, align 8
  %and = and i64 %15, 72057594037927424
  %cmp36 = icmp eq i64 %and, 0
  br i1 %cmp36, label %for.inc, label %if.end39

if.end39:                                         ; preds = %for.body
  %16 = load i32, ptr %cluster_size, align 4
  %conv44 = sext i32 %16 to i64
  tail call void @qcow2_free_clusters(ptr noundef %bs, i64 noundef %and, i64 noundef %conv44, i32 noundef 1) #13
  %17 = load ptr, ptr %l1_table, align 8
  %arrayidx47 = getelementptr i64, ptr %17, i64 %indvars.iv
  store i64 0, ptr %arrayidx47, align 8
  br label %for.inc

for.inc:                                          ; preds = %for.body, %if.end39
  %indvars.iv.next = add nsw i64 %indvars.iv, -1
  %cmp34 = icmp sgt i64 %indvars.iv.next, %13
  br i1 %cmp34, label %for.body, label %return, !llvm.loop !5

fail:                                             ; preds = %if.end15, %do.end
  %ret.0 = phi i32 [ %call, %do.end ], [ %call18, %if.end15 ]
  %l1_table48 = getelementptr inbounds nuw i8, ptr %0, i64 72
  %18 = load ptr, ptr %l1_table48, align 8
  %add.ptr = getelementptr i8, ptr %18, i64 %mul
  %19 = load i32, ptr %l1_size, align 8
  %sub50 = sub i32 %19, %conv2
  %conv51 = sext i32 %sub50 to i64
  %mul52 = shl nsw i64 %conv51, 3
  tail call void @llvm.memset.p0.i64(ptr align 8 %add.ptr, i8 0, i64 %mul52, i1 false)
  br label %return

return:                                           ; preds = %for.inc, %do.end30, %entry, %fail
  %retval.0 = phi i32 [ %ret.0, %fail ], [ 0, %entry ], [ 0, %do.end30 ], [ 0, %for.inc ]
  ret i32 %retval.0
}